target datalayout = "e-m:e-p270:32:32-p271:32:32-p272:64:64-i64:64-i128:128-f80:128-n8:16:32:64-S128"
target triple = "x86_64-unknown-linux-gnu"

%"class.std::set.0" = type { %"class.std::_Rb_tree.1" }
%"class.std::_Rb_tree.1" = type { %"struct.std::_Rb_tree<QuantLib::Observer *, QuantLib::Observer *, std::_Identity<QuantLib::Observer *>, std::less<QuantLib::Observer *>>::_Rb_tree_impl" }
%"struct.std::_Rb_tree<QuantLib::Observer *, QuantLib::Observer *, std::_Identity<QuantLib::Observer *>, std::less<QuantLib::Observer *>>::_Rb_tree_impl" = type { [8 x i8], %"struct.std::_Rb_tree_header" }
%"struct.std::_Rb_tree_header" = type { %"struct.std::_Rb_tree_node_base", i64 }
%"struct.std::_Rb_tree_node_base" = type { i32, ptr, ptr, ptr }
%"class.std::set" = type { %"class.std::_Rb_tree" }
%"class.std::_Rb_tree" = type { %"struct.std::_Rb_tree<boost::shared_ptr<QuantLib::Observable>, boost::shared_ptr<QuantLib::Observable>, std::_Identity<boost::shared_ptr<QuantLib::Observable>>, std::less<boost::shared_ptr<QuantLib::Observable>>>::_Rb_tree_impl" }
%"struct.std::_Rb_tree<boost::shared_ptr<QuantLib::Observable>, boost::shared_ptr<QuantLib::Observable>, std::_Identity<boost::shared_ptr<QuantLib::Observable>>, std::less<boost::shared_ptr<QuantLib::Observable>>>::_Rb_tree_impl" = type { [8 x i8], %"struct.std::_Rb_tree_header" }
%"class.boost::detail::shared_count" = type { ptr }
%"class.QuantLib::Observable" = type { ptr, %"class.std::set.0" }
%"class.QuantLib::AnalyticContinuousGeometricAveragePriceAsianHestonEngine" = type { %"class.QuantLib::ContinuousAveragingAsianOption::engine", double, double, double, double, double, %"class.QuantLib::Handle", %"class.QuantLib::Handle", %"class.QuantLib::Handle.22", %"class.boost::shared_ptr.20", double, double, double, double, double, %"class.std::map.24", i64, double, %"class.QuantLib::GaussLegendreIntegration" }
%"class.QuantLib::ContinuousAveragingAsianOption::engine" = type { %"class.QuantLib::GenericEngine" }
%"class.QuantLib::GenericEngine" = type { %"class.QuantLib::PricingEngine", %"class.QuantLib::Observer", %"class.QuantLib::ContinuousAveragingAsianOption::arguments", %"class.QuantLib::OneAssetOption::results" }
%"class.QuantLib::PricingEngine" = type { %"class.QuantLib::Observable" }
%"class.QuantLib::Observer" = type { ptr, %"class.std::set" }
%"class.QuantLib::ContinuousAveragingAsianOption::arguments" = type <{ %"class.QuantLib::Option::arguments", i32, [4 x i8] }>
%"class.QuantLib::Option::arguments" = type { %"class.QuantLib::PricingEngine::arguments", %"class.boost::shared_ptr.16", %"class.boost::shared_ptr.17" }
%"class.QuantLib::PricingEngine::arguments" = type { ptr }
%"class.boost::shared_ptr.16" = type { ptr, %"class.boost::detail::shared_count" }
%"class.boost::shared_ptr.17" = type { ptr, %"class.boost::detail::shared_count" }
%"class.QuantLib::OneAssetOption::results" = type { %"class.QuantLib::Instrument::results", %"class.QuantLib::Greeks", %"class.QuantLib::MoreGreeks" }
%"class.QuantLib::Instrument::results" = type { %"class.QuantLib::PricingEngine::results", double, double, %"class.QuantLib::Date", %"class.std::map" }
%"class.QuantLib::PricingEngine::results" = type { ptr }
%"class.QuantLib::Date" = type { i64 }
%"class.std::map" = type { %"class.std::_Rb_tree.10" }
%"class.std::_Rb_tree.10" = type { %"struct.std::_Rb_tree<std::__cxx11::basic_string<char>, std::pair<const std::__cxx11::basic_string<char>, boost::any>, std::_Select1st<std::pair<const std::__cxx11::basic_string<char>, boost::any>>, std::less<std::__cxx11::basic_string<char>>>::_Rb_tree_impl" }
%"struct.std::_Rb_tree<std::__cxx11::basic_string<char>, std::pair<const std::__cxx11::basic_string<char>, boost::any>, std::_Select1st<std::pair<const std::__cxx11::basic_string<char>, boost::any>>, std::less<std::__cxx11::basic_string<char>>>::_Rb_tree_impl" = type { [8 x i8], %"struct.std::_Rb_tree_header" }
%"class.QuantLib::Greeks" = type { %"class.QuantLib::PricingEngine::results", double, double, double, double, double, double }
%"class.QuantLib::MoreGreeks" = type { %"class.QuantLib::PricingEngine::results", double, double, double, double, double }
%"class.QuantLib::Handle" = type { %"class.boost::shared_ptr.21" }
%"class.boost::shared_ptr.21" = type { ptr, %"class.boost::detail::shared_count" }
%"class.QuantLib::Handle.22" = type { %"class.boost::shared_ptr.23" }
%"class.boost::shared_ptr.23" = type { ptr, %"class.boost::detail::shared_count" }
%"class.boost::shared_ptr.20" = type { ptr, %"class.boost::detail::shared_count" }
%"class.std::map.24" = type { %"class.std::_Rb_tree.25" }
%"class.std::_Rb_tree.25" = type { %"struct.std::_Rb_tree<int, std::pair<const int, std::complex<double>>, std::_Select1st<std::pair<const int, std::complex<double>>>, std::less<int>>::_Rb_tree_impl" }
%"struct.std::_Rb_tree<int, std::pair<const int, std::complex<double>>, std::_Select1st<std::pair<const int, std::complex<double>>>, std::less<int>>::_Rb_tree_impl" = type { [8 x i8], %"struct.std::_Rb_tree_header" }
%"class.QuantLib::GaussLegendreIntegration" = type { %"class.QuantLib::GaussianQuadrature" }
%"class.QuantLib::GaussianQuadrature" = type { %"class.QuantLib::Array", %"class.QuantLib::Array" }
%"class.QuantLib::Array" = type { %"class.std::unique_ptr", i64 }
%"class.std::unique_ptr" = type { %"struct.std::__uniq_ptr_data" }
%"struct.std::__uniq_ptr_data" = type { %"class.std::__uniq_ptr_impl" }
%"class.std::__uniq_ptr_impl" = type { %"class.std::tuple" }
%"class.std::tuple" = type { %"struct.std::_Tuple_impl" }
%"struct.std::_Tuple_impl" = type { %"struct.std::_Head_base.31" }
%"struct.std::_Head_base.31" = type { ptr }
%"class.std::complex" = type { { double, double } }

; Function Attrs: mustprogress nounwind uwtable
define linkonce_odr noundef { double, double } @_ZNKSt7complexIdE5__repEv(ptr noundef nonnull align 8 dereferenceable(16) %this) #1 comdat align 2 {
entry:
  %retval = alloca { double, double }, align 8
  %this.addr = alloca ptr, align 8
  store ptr %this, ptr %this.addr, align 8, !tbaa !3
  %this1 = load ptr, ptr %this.addr, align 8
  %_M_value = getelementptr inbounds nuw %"class.std::complex", ptr %this1, i32 0, i32 0
  %_M_value.realp = getelementptr inbounds nuw { double, double }, ptr %_M_value, i32 0, i32 0
  %_M_value.real = load double, ptr %_M_value.realp, align 8
  %_M_value.imagp = getelementptr inbounds nuw { double, double }, ptr %_M_value, i32 0, i32 1
  %_M_value.imag = load double, ptr %_M_value.imagp, align 8
  %retval.realp = getelementptr inbounds nuw { double, double }, ptr %retval, i32 0, i32 0
  %retval.imagp = getelementptr inbounds nuw { double, double }, ptr %retval, i32 0, i32 1
  store double %_M_value.real, ptr %retval.realp, align 8
  store double %_M_value.imag, ptr %retval.imagp, align 8
  %0 = load { double, double }, ptr %retval, align 8
  ret { double, double } %0
}

; Function Attrs: mustprogress nounwind uwtable
define linkonce_odr noundef nonnull align 8 dereferenceable(16) ptr @_ZNSt7complexIdEdVEd(ptr noundef nonnull align 8 dereferenceable(16) %this, double noundef %__d) #1 comdat align 2 {
entry:
  %this.addr = alloca ptr, align 8
  %__d.addr = alloca double, align 8
  store ptr %this, ptr %this.addr, align 8, !tbaa !3
  store double %__d, ptr %__d.addr, align 8, !tbaa !16
  %this1 = load ptr, ptr %this.addr, align 8
  %0 = load double, ptr %__d.addr, align 8, !tbaa !16
  %_M_value = getelementptr inbounds nuw %"class.std::complex", ptr %this1, i32 0, i32 0
  %_M_value.realp = getelementptr inbounds nuw { double, double }, ptr %_M_value, i32 0, i32 0
  %_M_value.real = load double, ptr %_M_value.realp, align 8
  %_M_value.imagp = getelementptr inbounds nuw { double, double }, ptr %_M_value, i32 0, i32 1
  %_M_value.imag = load double, ptr %_M_value.imagp, align 8
  %1 = fdiv double %_M_value.real, %0
  %2 = fdiv double %_M_value.imag, %0
  %_M_value.realp2 = getelementptr inbounds nuw { double, double }, ptr %_M_value, i32 0, i32 0
  %_M_value.imagp3 = getelementptr inbounds nuw { double, double }, ptr %_M_value, i32 0, i32 1
  store double %1, ptr %_M_value.realp2, align 8
  store double %2, ptr %_M_value.imagp3, align 8
  ret ptr %this1
}

; Function Attrs: mustprogress nounwind uwtable
define linkonce_odr noundef nonnull align 8 dereferenceable(16) ptr @_ZNSt7complexIdEmLEd(ptr noundef nonnull align 8 dereferenceable(16) %this, double noundef %__d) #1 comdat align 2 {
entry:
  %this.addr = alloca ptr, align 8
  %__d.addr = alloca double, align 8
  store ptr %this, ptr %this.addr, align 8, !tbaa !3
  store double %__d, ptr %__d.addr, align 8, !tbaa !16
  %this1 = load ptr, ptr %this.addr, align 8
  %0 = load double, ptr %__d.addr, align 8, !tbaa !16
  %_M_value = getelementptr inbounds nuw %"class.std::complex", ptr %this1, i32 0, i32 0
  %_M_value.realp = getelementptr inbounds nuw { double, double }, ptr %_M_value, i32 0, i32 0
  %_M_value.real = load double, ptr %_M_value.realp, align 8
  %_M_value.imagp = getelementptr inbounds nuw { double, double }, ptr %_M_value, i32 0, i32 1
  %_M_value.imag = load double, ptr %_M_value.imagp, align 8
  %mul.rl = fmul double %_M_value.real, %0
  %mul.il = fmul double %_M_value.imag, %0
  %_M_value.realp2 = getelementptr inbounds nuw { double, double }, ptr %_M_value, i32 0, i32 0
  %_M_value.imagp3 = getelementptr inbounds nuw { double, double }, ptr %_M_value, i32 0, i32 1
  store double %mul.rl, ptr %_M_value.realp2, align 8
  store double %mul.il, ptr %_M_value.imagp3, align 8
  ret ptr %this1
}

; Function Attrs: mustprogress nounwind uwtable
define linkonce_odr noundef nonnull align 8 dereferenceable(16) ptr @_ZNSt7complexIdEmLIdEERS0_RKS_IT_E(ptr noundef nonnull align 8 dereferenceable(16) %this, ptr noundef nonnull align 8 dereferenceable(16) %__z) #1 comdat align 2 {
entry:
  %this.addr = alloca ptr, align 8
  %__z.addr = alloca ptr, align 8
  %__t = alloca { double, double }, align 8
  store ptr %this, ptr %this.addr, align 8, !tbaa !3
  store ptr %__z, ptr %__z.addr, align 8, !tbaa !3
  %this1 = load ptr, ptr %this.addr, align 8
  call void @llvm.lifetime.start.p0(i64 16, ptr %__t) #15
  %0 = load ptr, ptr %__z.addr, align 8, !tbaa !3
  %call = call noundef { double, double } @_ZNKSt7complexIdE5__repEv(ptr noundef nonnull align 8 dereferenceable(16) %0)
  %1 = extractvalue { double, double } %call, 0
  %2 = extractvalue { double, double } %call, 1
  %__t.realp = getelementptr inbounds nuw { double, double }, ptr %__t, i32 0, i32 0
  %__t.imagp = getelementptr inbounds nuw { double, double }, ptr %__t, i32 0, i32 1
  store double %1, ptr %__t.realp, align 8
  store double %2, ptr %__t.imagp, align 8
  %__t.realp2 = getelementptr inbounds nuw { double, double }, ptr %__t, i32 0, i32 0
  %__t.real = load double, ptr %__t.realp2, align 8
  %__t.imagp3 = getelementptr inbounds nuw { double, double }, ptr %__t, i32 0, i32 1
  %__t.imag = load double, ptr %__t.imagp3, align 8
  %_M_value = getelementptr inbounds nuw %"class.std::complex", ptr %this1, i32 0, i32 0
  %_M_value.realp = getelementptr inbounds nuw { double, double }, ptr %_M_value, i32 0, i32 0
  %_M_value.real = load double, ptr %_M_value.realp, align 8
  %_M_value.imagp = getelementptr inbounds nuw { double, double }, ptr %_M_value, i32 0, i32 1
  %_M_value.imag = load double, ptr %_M_value.imagp, align 8
  %mul_ac = fmul double %_M_value.real, %__t.real
  %mul_bd = fmul double %_M_value.imag, %__t.imag
  %mul_ad = fmul double %_M_value.real, %__t.imag
  %mul_bc = fmul double %_M_value.imag, %__t.real
  %mul_r = fsub double %mul_ac, %mul_bd
  %mul_i = fadd double %mul_ad, %mul_bc
  %isnan_cmp = fcmp uno double %mul_r, %mul_r
  br i1 %isnan_cmp, label %complex_mul_imag_nan, label %complex_mul_cont, !prof !142

complex_mul_imag_nan:                             ; preds = %entry
  %isnan_cmp4 = fcmp uno double %mul_i, %mul_i
  br i1 %isnan_cmp4, label %complex_mul_libcall, label %complex_mul_cont, !prof !142

complex_mul_libcall:                              ; preds = %complex_mul_imag_nan
  %call5 = call noundef { double, double } @__muldc3(double noundef %_M_value.real, double noundef %_M_value.imag, double noundef %__t.real, double noundef %__t.imag) #15
  %3 = extractvalue { double, double } %call5, 0
  %4 = extractvalue { double, double } %call5, 1
  br label %complex_mul_cont

complex_mul_cont:                                 ; preds = %complex_mul_libcall, %complex_mul_imag_nan, %entry
  %real_mul_phi = phi double [ %mul_r, %entry ], [ %mul_r, %complex_mul_imag_nan ], [ %3, %complex_mul_libcall ]
  %imag_mul_phi = phi double [ %mul_i, %entry ], [ %mul_i, %complex_mul_imag_nan ], [ %4, %complex_mul_libcall ]
  %_M_value.realp6 = getelementptr inbounds nuw { double, double }, ptr %_M_value, i32 0, i32 0
  %_M_value.imagp7 = getelementptr inbounds nuw { double, double }, ptr %_M_value, i32 0, i32 1
  store double %real_mul_phi, ptr %_M_value.realp6, align 8
  store double %imag_mul_phi, ptr %_M_value.imagp7, align 8
  call void @llvm.lifetime.end.p0(i64 16, ptr %__t) #15
  ret ptr %this1
}

; Function Attrs: inlinehint mustprogress uwtable
define linkonce_odr { double, double } @_ZStdvIdESt7complexIT_ERKS2_RKS1_(ptr noundef nonnull align 8 dereferenceable(16) %__x, ptr noundef nonnull align 8 dereferenceable(8) %__y) #4 comdat {
entry:
  %retval = alloca %"class.std::complex", align 8
  %__x.addr = alloca ptr, align 8
  %__y.addr = alloca ptr, align 8
  store ptr %__x, ptr %__x.addr, align 8, !tbaa !3
  store ptr %__y, ptr %__y.addr, align 8, !tbaa !3
  %0 = load ptr, ptr %__x.addr, align 8, !tbaa !3
  call void @llvm.memcpy.p0.p0.i64(ptr align 8 %retval, ptr align 8 %0, i64 16, i1 false), !tbaa.struct !95
  %1 = load ptr, ptr %__y.addr, align 8, !tbaa !3
  %2 = load double, ptr %1, align 8, !tbaa !16
  %call = call noundef nonnull align 8 dereferenceable(16) ptr @_ZNSt7complexIdEdVEd(ptr noundef nonnull align 8 dereferenceable(16) %retval, double noundef %2)
  %coerce.dive = getelementptr inbounds nuw %"class.std::complex", ptr %retval, i32 0, i32 0
  %3 = load { double, double }, ptr %coerce.dive, align 8
  ret { double, double } %3
}

; Function Attrs: inlinehint mustprogress nounwind uwtable
define linkonce_odr { double, double } @_ZStmlIdESt7complexIT_ERKS2_RKS1_(ptr noundef nonnull align 8 dereferenceable(16) %__x, ptr noundef nonnull align 8 dereferenceable(8) %__y) #5 comdat {
entry:
  %retval = alloca %"class.std::complex", align 8
  %__x.addr = alloca ptr, align 8
  %__y.addr = alloca ptr, align 8
  store ptr %__x, ptr %__x.addr, align 8, !tbaa !3
  store ptr %__y, ptr %__y.addr, align 8, !tbaa !3
  %0 = load ptr, ptr %__x.addr, align 8, !tbaa !3
  call void @llvm.memcpy.p0.p0.i64(ptr align 8 %retval, ptr align 8 %0, i64 16, i1 false), !tbaa.struct !95
  %1 = load ptr, ptr %__y.addr, align 8, !tbaa !3
  %2 = load double, ptr %1, align 8, !tbaa !16
  %call = call noundef nonnull align 8 dereferenceable(16) ptr @_ZNSt7complexIdEmLEd(ptr noundef nonnull align 8 dereferenceable(16) %retval, double noundef %2)
  %coerce.dive = getelementptr inbounds nuw %"class.std::complex", ptr %retval, i32 0, i32 0
  %3 = load { double, double }, ptr %coerce.dive, align 8
  ret { double, double } %3
}

; Function Attrs: inlinehint mustprogress uwtable
define linkonce_odr { double, double } @_ZStmlIdESt7complexIT_ERKS2_S4_(ptr noundef nonnull align 8 dereferenceable(16) %__x, ptr noundef nonnull align 8 dereferenceable(16) %__y) #4 comdat {
entry:
  %retval = alloca %"class.std::complex", align 8
  %__x.addr = alloca ptr, align 8
  %__y.addr = alloca ptr, align 8
  store ptr %__x, ptr %__x.addr, align 8, !tbaa !3
  store ptr %__y, ptr %__y.addr, align 8, !tbaa !3
  %0 = load ptr, ptr %__x.addr, align 8, !tbaa !3
  call void @llvm.memcpy.p0.p0.i64(ptr align 8 %retval, ptr align 8 %0, i64 16, i1 false), !tbaa.struct !95
  %1 = load ptr, ptr %__y.addr, align 8, !tbaa !3
  %call = call noundef nonnull align 8 dereferenceable(16) ptr @_ZNSt7complexIdEmLIdEERS0_RKS_IT_E(ptr noundef nonnull align 8 dereferenceable(16) %retval, ptr noundef nonnull align 8 dereferenceable(16) %1)
  %coerce.dive = getelementptr inbounds nuw %"class.std::complex", ptr %retval, i32 0, i32 0
  %2 = load { double, double }, ptr %coerce.dive, align 8
  ret { double, double } %2
}

; Function Attrs: mustprogress uwtable
define { double, double } @_ZNK8QuantLib56AnalyticContinuousGeometricAveragePriceAsianHestonEngine4z1_fERKSt7complexIdES4_d(ptr noundef nonnull align 8 dereferenceable(584) %this, ptr noundef nonnull align 8 dereferenceable(16) %s, ptr noundef nonnull align 8 dereferenceable(16) %w, double noundef %T) #2 align 2 {
entry:
  %retval = alloca %"class.std::complex", align 8
  %this.addr = alloca ptr, align 8
  %s.addr = alloca ptr, align 8
  %w.addr = alloca ptr, align 8
  %T.addr = alloca double, align 8
  %ref.tmp = alloca %"class.std::complex", align 8
  %ref.tmp2 = alloca %"class.std::complex", align 8
  %ref.tmp3 = alloca double, align 8
  %ref.tmp7 = alloca double, align 8
  store ptr %this, ptr %this.addr, align 8, !tbaa !3
  store ptr %s, ptr %s.addr, align 8, !tbaa !3
  store ptr %w, ptr %w.addr, align 8, !tbaa !3
  store double %T, ptr %T.addr, align 8, !tbaa !16
  %this1 = load ptr, ptr %this.addr, align 8
  call void @llvm.lifetime.start.p0(i64 16, ptr %ref.tmp) #15
  call void @llvm.lifetime.start.p0(i64 16, ptr %ref.tmp2) #15
  %0 = load ptr, ptr %s.addr, align 8, !tbaa !3
  %1 = load ptr, ptr %s.addr, align 8, !tbaa !3
  %call = call { double, double } @_ZStmlIdESt7complexIT_ERKS2_S4_(ptr noundef nonnull align 8 dereferenceable(16) %0, ptr noundef nonnull align 8 dereferenceable(16) %1)
  %coerce.dive = getelementptr inbounds nuw %"class.std::complex", ptr %ref.tmp2, i32 0, i32 0
  %2 = getelementptr inbounds nuw { double, double }, ptr %coerce.dive, i32 0, i32 0
  %3 = extractvalue { double, double } %call, 0
  store double %3, ptr %2, align 8
  %4 = getelementptr inbounds nuw { double, double }, ptr %coerce.dive, i32 0, i32 1
  %5 = extractvalue { double, double } %call, 1
  store double %5, ptr %4, align 8
  call void @llvm.lifetime.start.p0(i64 8, ptr %ref.tmp3) #15
  %rho_ = getelementptr inbounds nuw %"class.QuantLib::AnalyticContinuousGeometricAveragePriceAsianHestonEngine", ptr %this1, i32 0, i32 2
  %6 = load double, ptr %rho_, align 8, !tbaa !77
  %rho_4 = getelementptr inbounds nuw %"class.QuantLib::AnalyticContinuousGeometricAveragePriceAsianHestonEngine", ptr %this1, i32 0, i32 2
  %7 = load double, ptr %rho_4, align 8, !tbaa !77
  %neg = fneg double %6
  %8 = call double @llvm.fmuladd.f64(double %neg, double %7, double 1.000000e+00)
  store double %8, ptr %ref.tmp3, align 8, !tbaa !16
  %call5 = call { double, double } @_ZStmlIdESt7complexIT_ERKS2_RKS1_(ptr noundef nonnull align 8 dereferenceable(16) %ref.tmp2, ptr noundef nonnull align 8 dereferenceable(8) %ref.tmp3)
  %coerce.dive6 = getelementptr inbounds nuw %"class.std::complex", ptr %ref.tmp, i32 0, i32 0
  %9 = getelementptr inbounds nuw { double, double }, ptr %coerce.dive6, i32 0, i32 0
  %10 = extractvalue { double, double } %call5, 0
  store double %10, ptr %9, align 8
  %11 = getelementptr inbounds nuw { double, double }, ptr %coerce.dive6, i32 0, i32 1
  %12 = extractvalue { double, double } %call5, 1
  store double %12, ptr %11, align 8
  call void @llvm.lifetime.start.p0(i64 8, ptr %ref.tmp7) #15
  %13 = load double, ptr %T.addr, align 8, !tbaa !16
  %mul = fmul double 2.000000e+00, %13
  %14 = load double, ptr %T.addr, align 8, !tbaa !16
  %mul8 = fmul double %mul, %14
  store double %mul8, ptr %ref.tmp7, align 8, !tbaa !16
  %call9 = call { double, double } @_ZStdvIdESt7complexIT_ERKS2_RKS1_(ptr noundef nonnull align 8 dereferenceable(16) %ref.tmp, ptr noundef nonnull align 8 dereferenceable(8) %ref.tmp7)
  %coerce.dive10 = getelementptr inbounds nuw %"class.std::complex", ptr %retval, i32 0, i32 0
  %15 = getelementptr inbounds nuw { double, double }, ptr %coerce.dive10, i32 0, i32 0
  %16 = extractvalue { double, double } %call9, 0
  store double %16, ptr %15, align 8
  %17 = getelementptr inbounds nuw { double, double }, ptr %coerce.dive10, i32 0, i32 1
  %18 = extractvalue { double, double } %call9, 1
  store double %18, ptr %17, align 8
  call void @llvm.lifetime.end.p0(i64 8, ptr %ref.tmp7) #15
  call void @llvm.lifetime.end.p0(i64 8, ptr %ref.tmp3) #15
  call void @llvm.lifetime.end.p0(i64 16, ptr %ref.tmp2) #15
  call void @llvm.lifetime.end.p0(i64 16, ptr %ref.tmp) #15
  %coerce.dive11 = getelementptr inbounds nuw %"class.std::complex", ptr %retval, i32 0, i32 0
  %19 = load { double, double }, ptr %coerce.dive11, align 8
  ret { double, double } %19
}