; Function Attrs: mustprogress nounwind uwtable
define { double, double } @_ZNK8QuantLib56AnalyticContinuousGeometricAveragePriceAsianHestonEngine4z1_fERKSt7complexIdES4_d(ptr nocapture noundef nonnull readonly align 8 dereferenceable(584) %this, ptr nocapture noundef nonnull readonly align 8 dereferenceable(16) %s, ptr nocapture noundef nonnull readnone align 8 dereferenceable(16) %w, double noundef %T) local_unnamed_addr #10 align 2 {
entry:
  %retval.sroa.0.0.copyload.i = load double, ptr %s, align 8
  %retval.sroa.4.0.__x.sroa_idx.i = getelementptr inbounds i8, ptr %s, i64 8
  %retval.sroa.4.0.copyload.i = load double, ptr %retval.sroa.4.0.__x.sroa_idx.i, align 8
  %mul_ac.i.i = fmul double %retval.sroa.0.0.copyload.i, %retval.sroa.0.0.copyload.i
  %mul_bd.i.i = fmul double %retval.sroa.4.0.copyload.i, %retval.sroa.4.0.copyload.i
  %mul_ad.i.i = fmul double %retval.sroa.0.0.copyload.i, %retval.sroa.4.0.copyload.i
  %mul_r.i.i = fsub double %mul_ac.i.i, %mul_bd.i.i
  %mul_i.i.i = fadd double %mul_ad.i.i, %mul_ad.i.i
  %isnan_cmp.i.i = fcmp uno double %mul_r.i.i, 0.000000e+00
  br i1 %isnan_cmp.i.i, label %complex_mul_imag_nan.i.i, label %_ZStmlIdESt7complexIT_ERKS2_S4_.exit, !prof !7

complex_mul_imag_nan.i.i:                         ; preds = %entry
  %isnan_cmp4.i.i = fcmp uno double %mul_i.i.i, 0.000000e+00
  br i1 %isnan_cmp4.i.i, label %complex_mul_libcall.i.i, label %_ZStmlIdESt7complexIT_ERKS2_S4_.exit, !prof !7

complex_mul_libcall.i.i:                          ; preds = %complex_mul_imag_nan.i.i
  %call5.i.i = tail call noundef { double, double } @__muldc3(double noundef %retval.sroa.0.0.copyload.i, double noundef %retval.sroa.4.0.copyload.i, double noundef %retval.sroa.0.0.copyload.i, double noundef %retval.sroa.4.0.copyload.i) #28
  %0 = extractvalue { double, double } %call5.i.i, 0
  %1 = extractvalue { double, double } %call5.i.i, 1
  br label %_ZStmlIdESt7complexIT_ERKS2_S4_.exit

_ZStmlIdESt7complexIT_ERKS2_S4_.exit:             ; preds = %entry, %complex_mul_imag_nan.i.i, %complex_mul_libcall.i.i
  %real_mul_phi.i.i = phi double [ %mul_r.i.i, %entry ], [ %mul_r.i.i, %complex_mul_imag_nan.i.i ], [ %0, %complex_mul_libcall.i.i ]
  %imag_mul_phi.i.i = phi double [ %mul_i.i.i, %entry ], [ %mul_i.i.i, %complex_mul_imag_nan.i.i ], [ %1, %complex_mul_libcall.i.i ]
  %rho_ = getelementptr inbounds nuw i8, ptr %this, i64 352
  %2 = load double, ptr %rho_, align 8, !tbaa !102
  %neg = fneg double %2
  %3 = tail call double @llvm.fmuladd.f64(double %neg, double %2, double 1.000000e+00)
  %mul.rl.i.i = fmul double %real_mul_phi.i.i, %3
  %mul.il.i.i = fmul double %imag_mul_phi.i.i, %3
  %mul = fmul double %T, 2.000000e+00
  %mul8 = fmul double %T, %mul
  %4 = fdiv double %mul.rl.i.i, %mul8
  %5 = fdiv double %mul.il.i.i, %mul8
  %.fca.0.insert.i11 = insertvalue { double, double } poison, double %4, 0
  %.fca.1.insert.i12 = insertvalue { double, double } %.fca.0.insert.i11, double %5, 1
  ret { double, double } %.fca.1.insert.i12
}